
Discarded input sections

 .reginfo       0x0000000000000000       0x18 main.o
 .MIPS.abiflags
                0x0000000000000000       0x18 main.o
 .gnu.attributes
                0x0000000000000000       0x10 main.o
 .reginfo       0x0000000000000000       0x18 mkd\core.o
 .MIPS.abiflags
                0x0000000000000000       0x18 mkd\core.o
 .gnu.attributes
                0x0000000000000000       0x10 mkd\core.o
 .reginfo       0x0000000000000000       0x18 mkd\object.o
 .MIPS.abiflags
                0x0000000000000000       0x18 mkd\object.o
 .gnu.attributes
                0x0000000000000000       0x10 mkd\object.o
 .reginfo       0x0000000000000000       0x18 mkd\camera.o
 .MIPS.abiflags
                0x0000000000000000       0x18 mkd\camera.o
 .gnu.attributes
                0x0000000000000000       0x10 mkd\camera.o
 .reginfo       0x0000000000000000       0x18 mkd\input.o
 .MIPS.abiflags
                0x0000000000000000       0x18 mkd\input.o
 .gnu.attributes
                0x0000000000000000       0x10 mkd\input.o
 .reginfo       0x0000000000000000       0x18 mkd\konquest.o
 .MIPS.abiflags
                0x0000000000000000       0x18 mkd\konquest.o
 .gnu.attributes
                0x0000000000000000       0x10 mkd\konquest.o
 .reginfo       0x0000000000000000       0x18 mkd\screen.o
 .MIPS.abiflags
                0x0000000000000000       0x18 mkd\screen.o
 .gnu.attributes
                0x0000000000000000       0x10 mkd\screen.o
 .reginfo       0x0000000000000000       0x18 mkd\string.o
 .MIPS.abiflags
                0x0000000000000000       0x18 mkd\string.o
 .gnu.attributes
                0x0000000000000000       0x10 mkd\string.o
 .reginfo       0x0000000000000000       0x18 mkd\content.o
 .MIPS.abiflags
                0x0000000000000000       0x18 mkd\content.o
 .gnu.attributes
                0x0000000000000000       0x10 mkd\content.o
 .reginfo       0x0000000000000000       0x18 mkd\script.o
 .MIPS.abiflags
                0x0000000000000000       0x18 mkd\script.o
 .gnu.attributes
                0x0000000000000000       0x10 mkd\script.o
 .reginfo       0x0000000000000000       0x18 mkdhook.o
 .MIPS.abiflags
                0x0000000000000000       0x18 mkdhook.o
 .gnu.attributes
                0x0000000000000000       0x10 mkdhook.o
 .reginfo       0x0000000000000000       0x18 moves.o
 .MIPS.abiflags
                0x0000000000000000       0x18 moves.o
 .gnu.attributes
                0x0000000000000000       0x10 moves.o
 .reginfo       0x0000000000000000       0x18 ps2mem.o
 .MIPS.abiflags
                0x0000000000000000       0x18 ps2mem.o
 .gnu.attributes
                0x0000000000000000       0x10 ps2mem.o
 .reginfo       0x0000000000000000       0x18 mips.o
 .MIPS.abiflags
                0x0000000000000000       0x18 mips.o
 .gnu.attributes
                0x0000000000000000       0x10 mips.o

Memory Configuration

Name             Origin             Length             Attributes
*default*        0x0000000000000000 0xffffffffffffffff

Linker script and memory map

LOAD main.o
LOAD mkd\core.o
LOAD mkd\object.o
LOAD mkd\camera.o
LOAD mkd\input.o
LOAD mkd\konquest.o
LOAD mkd\screen.o
LOAD mkd\string.o
LOAD mkd\content.o
LOAD mkd\script.o
LOAD mkdhook.o
LOAD moves.o
LOAD ps2mem.o
LOAD mips.o
LOAD e:/code/ps2/mkdhookps2/external/ps2sdk/ee/bin/../lib/gcc/mips64r5900el-ps2-elf/11.2.0/../../../../mips64r5900el-ps2-elf/lib\libm_nano.a
START GROUP
LOAD e:/code/ps2/mkdhookps2/external/ps2sdk/ee/bin/../lib/gcc/mips64r5900el-ps2-elf/11.2.0/../../../../mips64r5900el-ps2-elf/lib\libc_nano.a
LOAD ../external/ps2sdk/ps2sdk/ee/lib\libps2sdkc.a
LOAD ../external/ps2sdk/ps2sdk/ee/lib\libkernel-nopatch.a
END GROUP
LOAD e:/code/ps2/mkdhookps2/external/ps2sdk/ee/bin/../lib/gcc/mips64r5900el-ps2-elf/11.2.0\libgcc.a
                0x00000000009a0000                BASE_ADDRESS = 0x9a0000

.text           0x00000000009a0000     0x3a84
                0x00000000009a0000                _ftext = .
 *(.text)
 .text          0x00000000009a0000      0x150 main.o
                0x00000000009a0000                hook_character_lock_status
                0x00000000009a0010                init
                0x00000000009a0140                INVOKER
 .text          0x00000000009a0150      0x168 mkd\core.o
                0x00000000009a0150                _printf
                0x00000000009a0190                _sprintf
                0x00000000009a01d0                render
                0x00000000009a01e0                pause
                0x00000000009a01f0                init_fatality_world
                0x00000000009a0200                randu
                0x00000000009a0210                get_game_state
                0x00000000009a0220                get_game_mode
                0x00000000009a0230                get_game_tick
                0x00000000009a0240                xfer_proc
                0x00000000009a0250                set_game_speed
                0x00000000009a0260                get_character_id
                0x00000000009a0298                load_background
                0x00000000009a02a8                load_ssf
 .text          0x00000000009a02b8       0xf8 mkd\object.o
                0x00000000009a02b8                mk_insert
                0x00000000009a02c8                insert_fgnd_mkobj
                0x00000000009a02d8                get_matrix_right
                0x00000000009a02f8                get_matrix_forward
                0x00000000009a0318                get_bone_pos
                0x00000000009a0328                scale_bone
                0x00000000009a0360                get_id_from_object
                0x00000000009a0390                obj_set_color_for_all_materials
                0x00000000009a03a0                load_weapon
 .text          0x00000000009a03b0       0x40 mkd\camera.o
                0x00000000009a03b0                set_cam_position
                0x00000000009a03c0                set_cam_rotation
                0x00000000009a03d0                set_cam_target
                0x00000000009a03e0                cam_recalc_midpoint
 .text          0x00000000009a03f0       0x30 mkd\input.o
                0x00000000009a03f0                check_switch
                0x00000000009a0400                get_stick_pos
                0x00000000009a0410                my_joypad_state_5
 .text          0x00000000009a0420       0x40 mkd\konquest.o
                0x00000000009a0420                get_monk
                0x00000000009a0440                konquest_hide_hud
                0x00000000009a0450                load_hero_model
 .text          0x00000000009a0460       0x10 mkd\screen.o
                0x00000000009a0460                refresh_screen
 .text          0x00000000009a0470       0x40 mkd\string.o
                0x00000000009a0470                get_string_by_id
                0x00000000009a0480                string_left_xy
                0x00000000009a0490                update_string_obj
                0x00000000009a04a0                pfx_2d_obj_set_alpha_by_id
 .text          0x00000000009a04b0       0x20 mkd\content.o
                0x00000000009a04b0                is_bgnd_locked
                0x00000000009a04c0                is_char_locked
 .text          0x00000000009a04d0       0xf0 mkd\script.o
                0x00000000009a04d0                snd_req
                0x00000000009a04e0                create_mkproc_generic_nostack
                0x00000000009a04f0                am_i_flipped
                0x00000000009a0500                am_i_flipped_direct
                0x00000000009a0540                swap_active_proc
                0x00000000009a0550                get_cur_proc_pobj
                0x00000000009a0570                plyr_aux_weapon_release
                0x00000000009a0580                plyr_aux_weapon_grab
                0x00000000009a0590                plyr_obj_item_grab
                0x00000000009a05a0                pfx_bind_emitter_num_to_obj_bone
                0x00000000009a05b0                force_away
 .text          0x00000000009a05c0      0x2e0 mkdhook.o
                0x00000000009a05c0                init_mkdhook_vars
                0x00000000009a05f0                hook_new_select_table
                0x00000000009a0600                swap_select_screen
                0x00000000009a0750                process_swap_select_screen
                0x00000000009a07c8                restore_select_screen
                0x00000000009a07d8                process_mkdhook
                0x00000000009a0880                hook_render
 .text          0x00000000009a08a0      0x478 moves.o
                0x00000000009a08a0                swap_scan_table_1
                0x00000000009a0980                swap_scan_table_2
                0x00000000009a0a20                swap_scan_table_3
                0x00000000009a0ac0                swap_scan_table_4
                0x00000000009a0b88                init_moves_hook
 .text          0x00000000009a0d18       0x50 ps2mem.o
                0x00000000009a0d18                makeJal
                0x00000000009a0d30                patchInt
                0x00000000009a0d38                patchFloat
                0x00000000009a0d40                makeJmp
                0x00000000009a0d58                NOP
                0x00000000009a0d60                patchShort
 .text          0x00000000009a0d68     0x1460 mips.o
                0x00000000009a0d68                swap16
                0x00000000009a0d80                swap32
                0x00000000009a0db8                swap64
                0x00000000009a0e38                write_directly
                0x00000000009a0e70                nop
                0x00000000009a0e78                bc0f
                0x00000000009a0e90                di
                0x00000000009a0ea0                div1
                0x00000000009a0ec0                ei
                0x00000000009a0ed0                eret
                0x00000000009a0ee0                madd
                0x00000000009a0f00                maddu
                0x00000000009a0f28                mfhi1
                0x00000000009a0f40                mflo1
                0x00000000009a0f58                mfsa
                0x00000000009a0f68                mthi1
                0x00000000009a0f80                mtlo1
                0x00000000009a0f98                mtsa
                0x00000000009a0fa8                mtsab
                0x00000000009a0fc0                mult
                0x00000000009a0fe0                mult1
                0x00000000009a1008                multu
                0x00000000009a1028                multu1
                0x00000000009a1050                _sync
                0x00000000009a1058                syscall
                0x00000000009a1060                tge
                0x00000000009a1078                tlbwi
                0x00000000009a1088                abss
                0x00000000009a10a8                adds
                0x00000000009a10c8                addas
                0x00000000009a10e8                bc1f
                0x00000000009a10f8                bc1fl
                0x00000000009a1108                bc1tl
                0x00000000009a1118                ceqs
                0x00000000009a1138                cvtsw
                0x00000000009a1158                cvtws
                0x00000000009a1178                divs
                0x00000000009a11a0                madds
                0x00000000009a11c8                maddas
                0x00000000009a11e8                maxs
                0x00000000009a1210                mfc1
                0x00000000009a1228                mins
                0x00000000009a1250                movs
                0x00000000009a1270                msubs
                0x00000000009a1298                msubas
                0x00000000009a12b8                mtc1
                0x00000000009a12d0                muls
                0x00000000009a12f8                mulas
                0x00000000009a1318                negs
                0x00000000009a1338                rsqrts
                0x00000000009a1360                sqrts
                0x00000000009a1380                subs
                0x00000000009a13a8                paddh
                0x00000000009a13d0                paddsw
                0x00000000009a13f8                paddw
                0x00000000009a1420                pand
                0x00000000009a1448                pcgth
                0x00000000009a1470                pcpyh
                0x00000000009a1490                pcpyld
                0x00000000009a14b8                pcpyud
                0x00000000009a14e0                pexch
                0x00000000009a1500                pexew
                0x00000000009a1520                pextlb
                0x00000000009a1548                pextlh
                0x00000000009a1570                pextlw
                0x00000000009a1598                pextub
                0x00000000009a15c0                pextuw
                0x00000000009a15e8                pmaxh
                0x00000000009a1610                pmaxw
                0x00000000009a1638                pmfhi
                0x00000000009a1650                pmflo
                0x00000000009a1668                pminh
                0x00000000009a1690                pminw
                0x00000000009a16b8                pmulth
                0x00000000009a16e0                pnor
                0x00000000009a1708                por
                0x00000000009a1730                ppacb
                0x00000000009a1758                ppach
                0x00000000009a1780                prot3w
                0x00000000009a17a0                psllh
                0x00000000009a17c8                psllw
                0x00000000009a17f0                psrah
                0x00000000009a1818                psraw
                0x00000000009a1840                psrlh
                0x00000000009a1868                psrlw
                0x00000000009a1890                psubb
                0x00000000009a18b8                psubw
                0x00000000009a18e0                pxor
                0x00000000009a1908                qfsrv
                0x00000000009a1930                cles
                0x00000000009a1950                clts
                0x00000000009a1970                add
                0x00000000009a1990                addu
                0x00000000009a19b0                _and
                0x00000000009a19d0                daddu
                0x00000000009a19f0                _div
                0x00000000009a1a08                divu
                0x00000000009a1a20                dsll
                0x00000000009a1a40                dsll32
                0x00000000009a1a60                dsllv
                0x00000000009a1a80                dsra
                0x00000000009a1aa0                dsra32
                0x00000000009a1ac0                dsrl
                0x00000000009a1ae0                dsrl32
                0x00000000009a1b00                dsrlv
                0x00000000009a1b20                dsubu
                0x00000000009a1b40                jalr
                0x00000000009a1b50                jr
                0x00000000009a1b60                mfhi
                0x00000000009a1b70                mflo
                0x00000000009a1b80                movn
                0x00000000009a1ba0                movz
                0x00000000009a1bc0                mthi
                0x00000000009a1bd0                mtlo
                0x00000000009a1be0                nor
                0x00000000009a1c00                _or
                0x00000000009a1c20                sll
                0x00000000009a1c40                sllv
                0x00000000009a1c60                slt
                0x00000000009a1c80                sltu
                0x00000000009a1ca0                sra
                0x00000000009a1cc0                srav
                0x00000000009a1ce0                srl
                0x00000000009a1d00                srlv
                0x00000000009a1d20                sub
                0x00000000009a1d40                subu
                0x00000000009a1d60                _xor
                0x00000000009a1d80                addi
                0x00000000009a1da0                addiu
                0x00000000009a1dc0                andi
                0x00000000009a1de0                daddi
                0x00000000009a1e00                daddiu
                0x00000000009a1e20                lb
                0x00000000009a1e40                lbu
                0x00000000009a1e60                ld
                0x00000000009a1e80                ldl
                0x00000000009a1ea0                ldr
                0x00000000009a1ec0                lh
                0x00000000009a1ee0                lhu
                0x00000000009a1f00                lui
                0x00000000009a1f18                lw
                0x00000000009a1f38                lwl
                0x00000000009a1f58                lwr
                0x00000000009a1f78                lwu
                0x00000000009a1f98                ori
                0x00000000009a1fb8                sq
                0x00000000009a1fd8                slti
                0x00000000009a1ff8                sltiu
                0x00000000009a2018                sb
                0x00000000009a2038                sh
                0x00000000009a2058                sw
                0x00000000009a2078                sd
                0x00000000009a2098                lwc1
                0x00000000009a20b8                swc1
                0x00000000009a20d8                xori
                0x00000000009a20f8                li
                0x00000000009a2110                j
                0x00000000009a2128                jal
                0x00000000009a2140                b
                0x00000000009a2150                beq
                0x00000000009a2170                bne
                0x00000000009a2190                move
                0x00000000009a21a8                moveq
 *(.text.*)
 .text.startup  0x00000000009a21c8        0x8 main.o
                0x00000000009a21c8                main
 *(.gnu.linkonce.t*)
 *(.rodata)
 .rodata        0x00000000009a21d0     0x1282 mkdhook.o
 *fill*         0x00000000009a3452        0x2 
 .rodata        0x00000000009a3454       0x98 moves.o
 *(.data)
 .data          0x00000000009a34ec        0x0 main.o
 .data          0x00000000009a34ec        0x0 mkd\core.o
 .data          0x00000000009a34ec        0x0 mkd\object.o
 .data          0x00000000009a34ec        0x0 mkd\camera.o
 .data          0x00000000009a34ec        0x0 mkd\input.o
 .data          0x00000000009a34ec        0x0 mkd\konquest.o
 .data          0x00000000009a34ec        0x0 mkd\screen.o
 .data          0x00000000009a34ec        0x0 mkd\string.o
 .data          0x00000000009a34ec        0x0 mkd\content.o
 .data          0x00000000009a34ec        0x0 mkd\script.o
 .data          0x00000000009a34ec        0x8 mkdhook.o
                0x00000000009a34ec                select_timer
                0x00000000009a34f0                current_select
 *fill*         0x00000000009a34f4        0x4 
 .data          0x00000000009a34f8      0x584 moves.o
                0x00000000009a3508                scan_subzero_4
                0x00000000009a3538                scan_ashrah_3
                0x00000000009a3568                scan_ermac_2
                0x00000000009a3598                scan_baraka_1
                0x00000000009a35c8                scan_smoke_4
                0x00000000009a35f8                scan_smoke_1
                0x00000000009a3628                scan_noob_1
                0x00000000009a3658                scan_lk_4
                0x00000000009a3688                scan_lk_3
                0x00000000009a36c8                scan_lk_2
                0x00000000009a36f8                scan_mkda_kung_lao_1
                0x00000000009a3728                scan_mkda_raiden_4
                0x00000000009a3758                scan_mkda_raiden_3
                0x00000000009a3788                scan_mkda_raiden_2
                0x00000000009a37b8                scan_mkda_raiden_1
                0x00000000009a37e8                scan_table_4_jump_table
                0x00000000009a3888                scan_table_3_jump_table
                0x00000000009a3930                scan_table_2_jump_table
                0x00000000009a39d8                scan_table_1_jump_table
 .data          0x00000000009a3a7c        0x0 ps2mem.o
 .data          0x00000000009a3a7c        0x0 mips.o
 *(.init)
 *(.fini)
                0x00000000009a3a7c        0x8 QUAD 0x0
                [!provide]                        PROVIDE (_etext = .)
                [!provide]                        PROVIDE (etext = .)

/DISCARD/
 *(.MIPS.abiflags)
 *(.reginfo)
 *(.gnu.attributes)

.rodata
 *(.rodata)
 *(.rodata.*)
 *(.gnu.linkonce.r*)

.data           0x00000000009a3b00        0x0
                0x00000000009a3b00                _fdata = .
 *(.data)
 *(.data.*)
 *(.gnu.linkonce.d*)

.rdata
 *(.rdata)

.gcc_except_table
 *(.gcc_except_table)
                0x00000000009abaf0                _gp = (ALIGN (0x80) + 0x7ff0)

.lit4
 *(.lit4)

.lit8
 *(.lit8)

.sdata
 *(.sdata)
 *(.sdata.*)
 *(.gnu.linkonce.s*)
                0x00000000009a3b00                _edata = .
                [!provide]                        PROVIDE (edata = .)

.sbss           0x00000000009a3b00        0x0
                0x00000000009a3b00                _fbss = .
 *(.sbss)
 *(.sbss.*)
 *(.gnu.linkonce.sb*)
 *(.scommon)

.bss            0x00000000009a3b00        0x0
 *(.bss)
 .bss           0x00000000009a3b00        0x0 main.o
 .bss           0x00000000009a3b00        0x0 mkd\core.o
 .bss           0x00000000009a3b00        0x0 mkd\object.o
 .bss           0x00000000009a3b00        0x0 mkd\camera.o
 .bss           0x00000000009a3b00        0x0 mkd\input.o
 .bss           0x00000000009a3b00        0x0 mkd\konquest.o
 .bss           0x00000000009a3b00        0x0 mkd\screen.o
 .bss           0x00000000009a3b00        0x0 mkd\string.o
 .bss           0x00000000009a3b00        0x0 mkd\content.o
 .bss           0x00000000009a3b00        0x0 mkd\script.o
 .bss           0x00000000009a3b00        0x0 mkdhook.o
 .bss           0x00000000009a3b00        0x0 moves.o
 .bss           0x00000000009a3b00        0x0 ps2mem.o
 .bss           0x00000000009a3b00        0x0 mips.o
 *(.bss.*)
 *(.gnu.linkonce.b*)
 *(COMMON)
                0x00000000009a3b00                _end_bss = .
                0x00000000009a3b00                _end = .
                [!provide]                        PROVIDE (end = .)
                [!provide]                        PROVIDE (_heap_size = 0xffffffffffffffff)
                [!provide]                        PROVIDE (_stack = 0xffffffffffffffff)
                [!provide]                        PROVIDE (_stack_size = 0x20000)
OUTPUT(../MKDHookPS2.elf elf32-nlittlemips)

.pdr            0x0000000000000000     0x1d80
 .pdr           0x0000000000000000       0x80 main.o
 .pdr           0x0000000000000080      0x1c0 mkd\core.o
 .pdr           0x0000000000000240      0x120 mkd\object.o
 .pdr           0x0000000000000360       0x80 mkd\camera.o
 .pdr           0x00000000000003e0       0x60 mkd\input.o
 .pdr           0x0000000000000440       0x60 mkd\konquest.o
 .pdr           0x00000000000004a0       0x20 mkd\screen.o
 .pdr           0x00000000000004c0       0x80 mkd\string.o
 .pdr           0x0000000000000540       0x40 mkd\content.o
 .pdr           0x0000000000000580      0x160 mkd\script.o
 .pdr           0x00000000000006e0       0xe0 mkdhook.o
 .pdr           0x00000000000007c0       0xa0 moves.o
 .pdr           0x0000000000000860       0xc0 ps2mem.o
 .pdr           0x0000000000000920     0x1460 mips.o

.mdebug.abiN32  0x0000000000000000        0x0
 .mdebug.abiN32
                0x0000000000000000        0x0 main.o
 .mdebug.abiN32
                0x0000000000000000        0x0 mkd\core.o
 .mdebug.abiN32
                0x0000000000000000        0x0 mkd\object.o
 .mdebug.abiN32
                0x0000000000000000        0x0 mkd\camera.o
 .mdebug.abiN32
                0x0000000000000000        0x0 mkd\input.o
 .mdebug.abiN32
                0x0000000000000000        0x0 mkd\konquest.o
 .mdebug.abiN32
                0x0000000000000000        0x0 mkd\screen.o
 .mdebug.abiN32
                0x0000000000000000        0x0 mkd\string.o
 .mdebug.abiN32
                0x0000000000000000        0x0 mkd\content.o
 .mdebug.abiN32
                0x0000000000000000        0x0 mkd\script.o
 .mdebug.abiN32
                0x0000000000000000        0x0 mkdhook.o
 .mdebug.abiN32
                0x0000000000000000        0x0 moves.o
 .mdebug.abiN32
                0x0000000000000000        0x0 ps2mem.o
 .mdebug.abiN32
                0x0000000000000000        0x0 mips.o

.comment        0x0000000000000000       0x12
 .comment       0x0000000000000000       0x12 main.o
                                         0x13 (size before relaxing)
 .comment       0x0000000000000012       0x13 mkd\core.o
 .comment       0x0000000000000012       0x13 mkd\object.o
 .comment       0x0000000000000012       0x13 mkd\camera.o
 .comment       0x0000000000000012       0x13 mkd\input.o
 .comment       0x0000000000000012       0x13 mkd\konquest.o
 .comment       0x0000000000000012       0x13 mkd\screen.o
 .comment       0x0000000000000012       0x13 mkd\string.o
 .comment       0x0000000000000012       0x13 mkd\content.o
 .comment       0x0000000000000012       0x13 mkd\script.o
 .comment       0x0000000000000012       0x13 mkdhook.o
 .comment       0x0000000000000012       0x13 moves.o
 .comment       0x0000000000000012       0x13 ps2mem.o
 .comment       0x0000000000000012       0x13 mips.o
